; Function Attrs: mustprogress uwtable
define void @_ZN3gmx10TextWriter15ensureEmptyLineEv(ptr noundef nonnull readonly align 8 captures(none) dereferenceable(8) %0) local_unnamed_addr #0 align 2 {
  %2 = load ptr, ptr %0, align 8, !tbaa !4
  %3 = getelementptr inbounds nuw i8, ptr %2, i64 32
  %4 = load i32, ptr %3, align 8, !tbaa !26
  %5 = icmp eq i32 %4, 0
  br i1 %5, label %6, label %_ZN3gmx10TextWriter15ensureLineBreakEv.exit

6:                                                ; preds = %1
  tail call void @_ZN3gmx10TextWriter4Impl14writeRawStringEPKc(ptr noundef nonnull align 8 dereferenceable(41) %2, ptr noundef nonnull @.str)
  %.pre = load ptr, ptr %0, align 8, !tbaa !4
  %.phi.trans.insert = getelementptr inbounds nuw i8, ptr %.pre, i64 32
  %.pre1 = load i32, ptr %.phi.trans.insert, align 8, !tbaa !26
  br label %_ZN3gmx10TextWriter15ensureLineBreakEv.exit

_ZN3gmx10TextWriter15ensureLineBreakEv.exit:      ; preds = %1, %6
  %7 = phi i32 [ %4, %1 ], [ %.pre1, %6 ]
  %8 = phi ptr [ %2, %1 ], [ %.pre, %6 ]
  %9 = icmp slt i32 %7, 2
  br i1 %9, label %10, label %12

10:                                               ; preds = %_ZN3gmx10TextWriter15ensureLineBreakEv.exit
  %11 = getelementptr inbounds nuw i8, ptr %8, i64 40
  store i8 1, ptr %11, align 8, !tbaa !33
  br label %12

12:                                               ; preds = %10, %_ZN3gmx10TextWriter15ensureLineBreakEv.exit
  ret void
}